; Function Attrs: nounwind uwtable
define dso_local ptr @list_find(ptr noundef captures(none) %0, ptr noundef readonly captures(none) %1, ptr noundef %2) #0 {
  %4 = getelementptr inbounds nuw i8, ptr %0, i64 8
  %5 = load ptr, ptr %4, align 8
  %6 = getelementptr inbounds nuw i8, ptr %5, i64 40
  %7 = tail call i32 @pthread_rwlock_wrlock(ptr noundef nonnull %6) #9
  %.not = icmp eq i32 %7, 0
  br i1 %.not, label %.preheader, label %10

.preheader:                                       ; preds = %3
  %8 = getelementptr inbounds nuw i8, ptr %0, i64 16
  %9 = getelementptr inbounds nuw i8, ptr %0, i64 24
  br label %12

10:                                               ; preds = %3
  %11 = tail call ptr @__errno_location() #10
  store i32 %7, ptr %11, align 4
  tail call void (ptr, ...) @fatal_abort(ptr noundef nonnull @.str.2, ptr noundef nonnull @__func__.list_find) #11
  unreachable

12:                                               ; preds = %.preheader, %24
  %13 = load ptr, ptr %8, align 8
  %.not.i = icmp eq ptr %13, null
  br i1 %.not.i, label %17, label %14

14:                                               ; preds = %12
  %15 = getelementptr inbounds nuw i8, ptr %13, i64 8
  %16 = load ptr, ptr %15, align 8
  store ptr %16, ptr %8, align 8
  br label %17

17:                                               ; preds = %14, %12
  %18 = load ptr, ptr %9, align 8
  %19 = load ptr, ptr %18, align 8
  %.not10.i = icmp eq ptr %19, %13
  br i1 %.not10.i, label %22, label %20

20:                                               ; preds = %17
  %21 = getelementptr inbounds nuw i8, ptr %19, i64 8
  store ptr %21, ptr %9, align 8
  br label %22

22:                                               ; preds = %20, %17
  br i1 %.not.i, label %.critedge, label %_list_next_locked.exit

_list_next_locked.exit:                           ; preds = %22
  %23 = load ptr, ptr %13, align 8
  %.not12 = icmp eq ptr %23, null
  br i1 %.not12, label %.critedge, label %24

24:                                               ; preds = %_list_next_locked.exit
  %25 = tail call i32 %1(ptr noundef nonnull %23, ptr noundef %2) #9
  %.not13 = icmp eq i32 %25, 0
  br i1 %.not13, label %12, label %.critedge, !llvm.loop !31

.critedge:                                        ; preds = %22, %24, %_list_next_locked.exit
  %26 = phi ptr [ %23, %24 ], [ null, %_list_next_locked.exit ], [ null, %22 ]
  %27 = load ptr, ptr %4, align 8
  %28 = getelementptr inbounds nuw i8, ptr %27, i64 40
  %29 = tail call i32 @pthread_rwlock_unlock(ptr noundef nonnull %28) #9
  %.not14 = icmp eq i32 %29, 0
  br i1 %.not14, label %32, label %30

30:                                               ; preds = %.critedge
  %31 = tail call ptr @__errno_location() #10
  store i32 %29, ptr %31, align 4
  tail call void (ptr, ...) @fatal_abort(ptr noundef nonnull @.str.3, ptr noundef nonnull @__func__.list_find) #11
  unreachable

32:                                               ; preds = %.critedge
  ret ptr %26
}